target datalayout = "e-m:e-p270:32:32-p271:32:32-p272:64:64-i64:64-i128:128-f80:128-n8:16:32:64-S128"
target triple = "x86_64-pc-linux-gnu"

%struct.H5S_t = type { %struct.H5S_extent_t, %struct.H5S_select_t }
%struct.H5S_extent_t = type { %struct.H5O_shared_t, i32, i32, i64, i32, ptr, ptr }
%struct.H5O_shared_t = type { i32, ptr, i32, %union.anon }
%union.anon = type { %struct.H5O_mesg_loc_t }
%struct.H5O_mesg_loc_t = type { i32, i64 }
%struct.H5S_select_t = type { ptr, i8, [32 x i64], i64, %union.anon.0 }
%union.anon.0 = type { ptr }
%struct.H5S_hyper_sel_t = type { i32, %struct.H5S_hyper_diminfo_t, i32, i64, ptr }
%struct.H5S_hyper_diminfo_t = type { [32 x %struct.H5S_hyper_dim_t], [32 x %struct.H5S_hyper_dim_t], [32 x i64], [32 x i64] }
%struct.H5S_hyper_dim_t = type { i64, i64, i64, i64 }

@H5S_init_g = external global i8, align 1
@H5_libterm_g = external global i8, align 1
@.str = private unnamed_addr constant [102 x i8] c"generated/home/dtcxzyw/WorkSpace/Projects/compilers/llvm-opt-benchmark/bench/hdf5/hdf5/src/H5Shyper.c\00", align 1
@H5E_DATASPACE_g = external global i64, align 8
@H5E_BADVALUE_g = external global i64, align 8
@__func__.H5S__hyper_num_elem_non_unlim = private unnamed_addr constant [30 x i8] c"H5S__hyper_num_elem_non_unlim\00", align 1
@.str.87 = private unnamed_addr constant [37 x i8] c"selection has no unlimited dimension\00", align 1

; Function Attrs: nounwind uwtable
define internal i32 @H5S__hyper_num_elem_non_unlim(ptr noundef %0, ptr noundef %1) #0 {
  %3 = alloca ptr, align 8
  %4 = alloca ptr, align 8
  %5 = alloca i32, align 4
  %6 = alloca i8, align 1
  store ptr %0, ptr %3, align 8, !tbaa !3
  store ptr %1, ptr %4, align 8, !tbaa !33
  call void @llvm.lifetime.start.p0(i64 4, ptr %5) #7
  store i32 0, ptr %5, align 4, !tbaa !10
  call void @llvm.lifetime.start.p0(i64 1, ptr %6) #7
  store i8 0, ptr %6, align 1, !tbaa !8
  %7 = load i8, ptr @H5S_init_g, align 1, !tbaa !8, !range !12, !noundef !13
  %8 = trunc i8 %7 to i1
  br i1 %8, label %13, label %9

9:                                                ; preds = %2
  %10 = load i8, ptr @H5_libterm_g, align 1, !tbaa !8, !range !12, !noundef !13
  %11 = trunc i8 %10 to i1
  %12 = xor i1 %11, true
  br label %13

13:                                               ; preds = %9, %2
  %14 = phi i1 [ true, %2 ], [ %12, %9 ]
  %15 = xor i1 %14, true
  %16 = xor i1 %15, true
  %17 = zext i1 %16 to i32
  %18 = sext i32 %17 to i64
  %19 = call i64 @llvm.expect.i64(i64 %18, i64 1)
  %20 = icmp ne i64 %19, 0
  br i1 %20, label %21, label %58

21:                                               ; preds = %13
  %22 = load ptr, ptr %3, align 8, !tbaa !3
  %23 = getelementptr inbounds nuw %struct.H5S_t, ptr %22, i32 0, i32 1
  %24 = getelementptr inbounds nuw %struct.H5S_select_t, ptr %23, i32 0, i32 4
  %25 = load ptr, ptr %24, align 8, !tbaa !14
  %26 = getelementptr inbounds nuw %struct.H5S_hyper_sel_t, ptr %25, i32 0, i32 2
  %27 = load i32, ptr %26, align 8, !tbaa !30
  %28 = icmp sge i32 %27, 0
  br i1 %28, label %29, label %37

29:                                               ; preds = %21
  %30 = load ptr, ptr %3, align 8, !tbaa !3
  %31 = getelementptr inbounds nuw %struct.H5S_t, ptr %30, i32 0, i32 1
  %32 = getelementptr inbounds nuw %struct.H5S_select_t, ptr %31, i32 0, i32 4
  %33 = load ptr, ptr %32, align 8, !tbaa !14
  %34 = getelementptr inbounds nuw %struct.H5S_hyper_sel_t, ptr %33, i32 0, i32 3
  %35 = load i64, ptr %34, align 8, !tbaa !31
  %36 = load ptr, ptr %4, align 8, !tbaa !33
  store i64 %35, ptr %36, align 8, !tbaa !15
  br label %56

37:                                               ; preds = %21
  br label %38

38:                                               ; preds = %37
  br label %39

39:                                               ; preds = %38
  br label %40

40:                                               ; preds = %39
  %41 = load i64, ptr @H5E_DATASPACE_g, align 8, !tbaa !15
  %42 = load i64, ptr @H5E_BADVALUE_g, align 8, !tbaa !15
  %43 = call i32 (ptr, ptr, i32, i64, i64, ptr, ...) @H5E_printf_stack(ptr noundef @.str, ptr noundef @__func__.H5S__hyper_num_elem_non_unlim, i32 noundef 5097, i64 noundef %41, i64 noundef %42, ptr noundef @.str.87)
  br label %44

44:                                               ; preds = %40
  br label %45

45:                                               ; preds = %44
  store i8 1, ptr %6, align 1, !tbaa !8
  %46 = load i8, ptr %6, align 1, !tbaa !8, !range !12, !noundef !13
  %47 = trunc i8 %46 to i1
  %48 = zext i1 %47 to i8
  store i8 %48, ptr %6, align 1, !tbaa !8
  br label %49

49:                                               ; preds = %45
  br label %50

50:                                               ; preds = %49
  br label %51

51:                                               ; preds = %50
  store i32 -1, ptr %5, align 4, !tbaa !10
  br label %57

52:                                               ; No predecessors!
  br label %53

53:                                               ; preds = %52
  br label %54

54:                                               ; preds = %53
  br label %55

55:                                               ; preds = %54
  br label %56

56:                                               ; preds = %55, %29
  br label %57

57:                                               ; preds = %56, %51
  br label %58

58:                                               ; preds = %57, %13
  %59 = load i32, ptr %5, align 4, !tbaa !10
  call void @llvm.lifetime.end.p0(i64 1, ptr %6) #7
  call void @llvm.lifetime.end.p0(i64 4, ptr %5) #7
  ret i32 %59
}