; Function Attrs: nounwind uwtable
define internal range(i32 -1, 1) i32 @H5S__hyper_num_elem_non_unlim(ptr noundef readonly captures(none) %0, ptr noundef writeonly captures(none) %1) #0 {
  %3 = load i8, ptr @H5S_init_g, align 1, !tbaa !3, !range !7, !noundef !8
  %4 = trunc nuw i8 %3 to i1
  %5 = load i8, ptr @H5_libterm_g, align 1, !range !7
  %6 = trunc nuw i8 %5 to i1
  %7 = xor i1 %6, true
  %8 = select i1 %4, i1 true, i1 %7
  br i1 %8, label %9, label %22, !prof !9

9:                                                ; preds = %2
  %10 = getelementptr inbounds nuw i8, ptr %0, i64 360
  %11 = load ptr, ptr %10, align 8, !tbaa !10
  %12 = getelementptr inbounds nuw i8, ptr %11, i64 2568
  %13 = load i32, ptr %12, align 8, !tbaa !28
  %14 = icmp sgt i32 %13, -1
  br i1 %14, label %15, label %18

15:                                               ; preds = %9
  %16 = getelementptr inbounds nuw i8, ptr %11, i64 2576
  %17 = load i64, ptr %16, align 8, !tbaa !29
  store i64 %17, ptr %1, align 8, !tbaa !11
  br label %22

18:                                               ; preds = %9
  %19 = load i64, ptr @H5E_DATASPACE_g, align 8, !tbaa !11
  %20 = load i64, ptr @H5E_BADVALUE_g, align 8, !tbaa !11
  %21 = tail call i32 (ptr, ptr, i32, i64, i64, ptr, ...) @H5E_printf_stack(ptr noundef nonnull @.str, ptr noundef nonnull @__func__.H5S__hyper_num_elem_non_unlim, i32 noundef 5097, i64 noundef %19, i64 noundef %20, ptr noundef nonnull @.str.87) #14
  br label %22

22:                                               ; preds = %18, %15, %2
  %.0 = phi i32 [ 0, %15 ], [ -1, %18 ], [ 0, %2 ]
  ret i32 %.0
}